; Function Attrs: null_pointer_is_valid sspstrong uwtable
define internal i32 @dissect_vsncp_errorcode_opt(ptr noundef %0, ptr noundef %1, ptr noundef %2, ptr readnone captures(none) %3) #1 {
  %5 = tail call i32 @tvb_reported_length(ptr noundef %0)
  %6 = icmp slt i32 %5, 3
  %7 = load i32, ptr @proto_vsncp_option_errorcode, align 4
  br i1 %6, label %8, label %14

8:                                                ; preds = %4
  %9 = tail call ptr @find_protocol_by_id(i32 noundef %7)
  %10 = tail call ptr @proto_get_protocol_short_name(ptr noundef %9)
  %11 = icmp eq i32 %5, 1
  %12 = select i1 %11, ptr @.str.1006, ptr @.str.1007
  %13 = tail call ptr (ptr, ptr, ptr, ptr, i32, i32, ptr, ...) @proto_tree_add_expert_format(ptr noundef %2, ptr noundef %1, ptr noundef nonnull @ei_ppp_opt_len_invalid, ptr noundef %0, i32 noundef 0, i32 noundef %5, ptr noundef nonnull @.str.1316, ptr noundef %10, i32 noundef %5, ptr noundef nonnull %12, i32 noundef 3)
  br label %28

14:                                               ; preds = %4
  %15 = tail call ptr @proto_tree_add_item(ptr noundef %2, i32 noundef %7, ptr noundef %0, i32 noundef 0, i32 noundef %5, i32 noundef 0)
  %16 = load i32, ptr @ett_vsncp_errorcode_opt, align 4
  %17 = tail call ptr @proto_item_add_subtree(ptr noundef %15, i32 noundef %16)
  %18 = load i32, ptr @proto_vsncp_option_pdnaddress, align 4
  %19 = tail call ptr @proto_registrar_get_name(i32 noundef %18)
  %20 = tail call zeroext i8 @tvb_get_uint8(ptr noundef %0, i32 noundef 0)
  %21 = load i32, ptr @hf_vsncp_opt_type, align 4
  %22 = zext i8 %20 to i32
  %23 = tail call ptr (ptr, i32, ptr, i32, i32, i32, ptr, ...) @proto_tree_add_uint_format_value(ptr noundef %17, i32 noundef %21, ptr noundef %0, i32 noundef 0, i32 noundef 1, i32 noundef %22, ptr noundef nonnull @.str.1295, ptr noundef %19, i32 noundef %22)
  %24 = load i32, ptr @hf_vsncp_opt_length, align 4
  %25 = tail call ptr @proto_tree_add_item(ptr noundef %17, i32 noundef %24, ptr noundef %0, i32 noundef 1, i32 noundef 1, i32 noundef 0)
  %26 = load i32, ptr @hf_vsncp_error_code, align 4
  %27 = tail call ptr @proto_tree_add_item(ptr noundef %17, i32 noundef %26, ptr noundef %0, i32 noundef 2, i32 noundef 1, i32 noundef 0)
  br label %28

28:                                               ; preds = %14, %8
  %29 = tail call i32 @tvb_captured_length(ptr noundef %0)
  ret i32 %29
}